target datalayout = "e-m:e-p270:32:32-p271:32:32-p272:64:64-i64:64-i128:128-f80:128-n8:16:32:64-S128"
target triple = "x86_64-pc-linux-gnu"

%struct.ForEachState = type { ptr, i32 }
%struct.List = type { i32, i32, i32, ptr, [0 x %union.ListCell] }
%union.ListCell = type { ptr }
%struct.String = type { i32, ptr }
%struct.StringInfoData = type { ptr, i32, i32, i32 }
%struct.Node = type { i32 }

@.str.1 = private unnamed_addr constant [12 x i8] c"namespace.c\00", align 1
@.str.24 = private unnamed_addr constant [38 x i8] c"unexpected node type in name list: %d\00", align 1
@__func__.NameListToString = private unnamed_addr constant [17 x i8] c"NameListToString\00", align 1

; Function Attrs: inlinehint nounwind uwtable
define internal ptr @list_head(ptr noundef %0) #7 {
  %2 = alloca ptr, align 8
  store ptr %0, ptr %2, align 8
  %3 = load ptr, ptr %2, align 8
  %4 = icmp ne ptr %3, null
  br i1 %4, label %5, label %10

5:                                                ; preds = %1
  %6 = load ptr, ptr %2, align 8
  %7 = getelementptr inbounds nuw %struct.List, ptr %6, i32 0, i32 3
  %8 = load ptr, ptr %7, align 8
  %9 = getelementptr inbounds %union.ListCell, ptr %8, i64 0
  br label %11

10:                                               ; preds = %1
  br label %11

11:                                               ; preds = %10, %5
  %12 = phi ptr [ %9, %5 ], [ null, %10 ]
  ret ptr %12
}

; Function Attrs: nounwind uwtable
define dso_local ptr @NameListToString(ptr noundef %0) #0 {
  %2 = alloca ptr, align 8
  %3 = alloca %struct.StringInfoData, align 8
  %4 = alloca ptr, align 8
  %5 = alloca %struct.ForEachState, align 8
  %6 = alloca ptr, align 8
  store ptr %0, ptr %2, align 8
  call void @llvm.lifetime.start.p0(i64 24, ptr %3) #14
  call void @llvm.lifetime.start.p0(i64 8, ptr %4) #14
  call void @initStringInfo(ptr noundef %3)
  call void @llvm.lifetime.start.p0(i64 16, ptr %5) #14
  %7 = getelementptr inbounds nuw %struct.ForEachState, ptr %5, i32 0, i32 0
  %8 = load ptr, ptr %2, align 8
  store ptr %8, ptr %7, align 8
  %9 = getelementptr inbounds nuw %struct.ForEachState, ptr %5, i32 0, i32 1
  store i32 0, ptr %9, align 8
  %10 = getelementptr i8, ptr %5, i64 12
  call void @llvm.memset.p0.i64(ptr align 4 %10, i8 0, i64 4, i1 false)
  br label %11

11:                                               ; preds = %76, %1
  %12 = getelementptr inbounds nuw %struct.ForEachState, ptr %5, i32 0, i32 0
  %13 = load ptr, ptr %12, align 8
  %14 = icmp ne ptr %13, null
  br i1 %14, label %15, label %32

15:                                               ; preds = %11
  %16 = getelementptr inbounds nuw %struct.ForEachState, ptr %5, i32 0, i32 1
  %17 = load i32, ptr %16, align 8
  %18 = getelementptr inbounds nuw %struct.ForEachState, ptr %5, i32 0, i32 0
  %19 = load ptr, ptr %18, align 8
  %20 = getelementptr inbounds nuw %struct.List, ptr %19, i32 0, i32 1
  %21 = load i32, ptr %20, align 4
  %22 = icmp slt i32 %17, %21
  br i1 %22, label %23, label %32

23:                                               ; preds = %15
  %24 = getelementptr inbounds nuw %struct.ForEachState, ptr %5, i32 0, i32 0
  %25 = load ptr, ptr %24, align 8
  %26 = getelementptr inbounds nuw %struct.List, ptr %25, i32 0, i32 3
  %27 = load ptr, ptr %26, align 8
  %28 = getelementptr inbounds nuw %struct.ForEachState, ptr %5, i32 0, i32 1
  %29 = load i32, ptr %28, align 8
  %30 = sext i32 %29 to i64
  %31 = getelementptr inbounds %union.ListCell, ptr %27, i64 %30
  store ptr %31, ptr %4, align 8
  br label %33

32:                                               ; preds = %15, %11
  store ptr null, ptr %4, align 8
  br label %33

33:                                               ; preds = %32, %23
  %34 = phi i32 [ 1, %23 ], [ 0, %32 ]
  %35 = icmp ne i32 %34, 0
  br i1 %35, label %37, label %36

36:                                               ; preds = %33
  call void @llvm.lifetime.end.p0(i64 16, ptr %5) #14
  br label %80

37:                                               ; preds = %33
  call void @llvm.lifetime.start.p0(i64 8, ptr %6) #14
  %38 = load ptr, ptr %4, align 8
  %39 = load ptr, ptr %38, align 8
  store ptr %39, ptr %6, align 8
  %40 = load ptr, ptr %4, align 8
  %41 = load ptr, ptr %2, align 8
  %42 = call ptr @list_head(ptr noundef %41)
  %43 = icmp ne ptr %40, %42
  br i1 %43, label %44, label %45

44:                                               ; preds = %37
  call void @appendStringInfoChar(ptr noundef %3, i8 noundef signext 46)
  br label %45

45:                                               ; preds = %44, %37
  %46 = load ptr, ptr %6, align 8
  %47 = getelementptr inbounds nuw %struct.Node, ptr %46, i32 0, i32 0
  %48 = load i32, ptr %47, align 4
  %49 = icmp eq i32 %48, 467
  br i1 %49, label %50, label %54

50:                                               ; preds = %45
  %51 = load ptr, ptr %6, align 8
  %52 = getelementptr inbounds nuw %struct.String, ptr %51, i32 0, i32 1
  %53 = load ptr, ptr %52, align 8
  call void @appendStringInfoString(ptr noundef %3, ptr noundef %53)
  br label %75

54:                                               ; preds = %45
  %55 = load ptr, ptr %6, align 8
  %56 = getelementptr inbounds nuw %struct.Node, ptr %55, i32 0, i32 0
  %57 = load i32, ptr %56, align 4
  %58 = icmp eq i32 %57, 77
  br i1 %58, label %59, label %60

59:                                               ; preds = %54
  call void @appendStringInfoChar(ptr noundef %3, i8 noundef signext 42)
  br label %74

60:                                               ; preds = %54
  br label %61

61:                                               ; preds = %60
  br i1 true, label %62, label %64

62:                                               ; preds = %61
  %63 = call zeroext i1 @errstart_cold(i32 noundef 21, ptr noundef null) #16
  br i1 %63, label %66, label %71

64:                                               ; preds = %61
  %65 = call zeroext i1 @errstart(i32 noundef 21, ptr noundef null)
  br i1 %65, label %66, label %71

66:                                               ; preds = %64, %62
  %67 = load ptr, ptr %6, align 8
  %68 = getelementptr inbounds nuw %struct.Node, ptr %67, i32 0, i32 0
  %69 = load i32, ptr %68, align 4
  %70 = call i32 (ptr, ...) @errmsg_internal(ptr noundef @.str.24, i32 noundef %69)
  call void @errfinish(ptr noundef @.str.1, i32 noundef 3614, ptr noundef @__func__.NameListToString)
  br label %71

71:                                               ; preds = %66, %64, %62
  unreachable

72:                                               ; No predecessors!
  br label %73

73:                                               ; preds = %72
  br label %74

74:                                               ; preds = %73, %59
  br label %75

75:                                               ; preds = %74, %50
  call void @llvm.lifetime.end.p0(i64 8, ptr %6) #14
  br label %76

76:                                               ; preds = %75
  %77 = getelementptr inbounds nuw %struct.ForEachState, ptr %5, i32 0, i32 1
  %78 = load i32, ptr %77, align 8
  %79 = add i32 %78, 1
  store i32 %79, ptr %77, align 8
  br label %11, !llvm.loop !32

80:                                               ; preds = %36
  %81 = getelementptr inbounds nuw %struct.StringInfoData, ptr %3, i32 0, i32 0
  %82 = load ptr, ptr %81, align 8
  call void @llvm.lifetime.end.p0(i64 8, ptr %4) #14
  call void @llvm.lifetime.end.p0(i64 24, ptr %3) #14
  ret ptr %82
}