; Function Attrs: nounwind uwtable
define dso_local ptr @NameListToString(ptr noundef readonly captures(address_is_null) %0) local_unnamed_addr #0 {
  %2 = alloca %struct.StringInfoData, align 8
  call void @llvm.lifetime.start.p0(i64 24, ptr nonnull %2) #19
  call void @initStringInfo(ptr noundef nonnull %2) #19
  %.not = icmp eq ptr %0, null
  br i1 %.not, label %._crit_edge, label %.lr.ph

.lr.ph:                                           ; preds = %1
  %3 = getelementptr inbounds nuw i8, ptr %0, i64 4
  %4 = getelementptr inbounds nuw i8, ptr %0, i64 16
  %5 = load i32, ptr %3, align 4
  %6 = icmp sgt i32 %5, 0
  br i1 %6, label %list_head.exit, label %._crit_edge

._crit_edge:                                      ; preds = %21, %.lr.ph, %1
  %7 = load ptr, ptr %2, align 8
  call void @llvm.lifetime.end.p0(i64 24, ptr nonnull %2) #19
  ret ptr %7

list_head.exit:                                   ; preds = %.lr.ph, %21
  %indvars.iv = phi i64 [ %indvars.iv.next, %21 ], [ 0, %.lr.ph ]
  %8 = load ptr, ptr %4, align 8
  %9 = getelementptr inbounds nuw %union.ListCell, ptr %8, i64 %indvars.iv
  %10 = load ptr, ptr %9, align 8
  %.not15 = icmp eq i64 %indvars.iv, 0
  br i1 %.not15, label %12, label %11

11:                                               ; preds = %list_head.exit
  call void @appendStringInfoChar(ptr noundef nonnull %2, i8 noundef signext 46) #19
  br label %12

12:                                               ; preds = %11, %list_head.exit
  %13 = load i32, ptr %10, align 4
  switch i32 %13, label %.split [
    i32 467, label %14
    i32 77, label %17
  ]

14:                                               ; preds = %12
  %15 = getelementptr inbounds nuw i8, ptr %10, i64 8
  %16 = load ptr, ptr %15, align 8
  call void @appendStringInfoString(ptr noundef nonnull %2, ptr noundef %16) #19
  br label %21

17:                                               ; preds = %12
  call void @appendStringInfoChar(ptr noundef nonnull %2, i8 noundef signext 42) #19
  br label %21

.split:                                           ; preds = %12
  %18 = call zeroext i1 @errstart_cold(i32 noundef 21, ptr noundef null) #21
  call void @llvm.assume(i1 %18)
  %19 = load i32, ptr %10, align 4
  %20 = call i32 (ptr, ...) @errmsg_internal(ptr noundef nonnull @.str.24, i32 noundef %19) #19
  call void @errfinish(ptr noundef nonnull @.str.1, i32 noundef 3614, ptr noundef nonnull @__func__.NameListToString) #19
  unreachable

21:                                               ; preds = %17, %14
  %indvars.iv.next = add nuw nsw i64 %indvars.iv, 1
  %22 = load i32, ptr %3, align 4
  %23 = sext i32 %22 to i64
  %24 = icmp slt i64 %indvars.iv.next, %23
  br i1 %24, label %list_head.exit, label %._crit_edge
}